target datalayout = "e-m:e-p270:32:32-p271:32:32-p272:64:64-i64:64-i128:128-f80:128-n8:16:32:64-S128"
target triple = "x86_64-pc-linux-gnu"

@PyExc_OSError = external global ptr, align 8

; Function Attrs: nounwind uwtable
define internal i32 @get_inheritable(i32 noundef %0, i32 noundef %1) #0 {
  %3 = alloca i32, align 4
  %4 = alloca i32, align 4
  %5 = alloca i32, align 4
  %6 = alloca i32, align 4
  %7 = alloca i32, align 4
  store i32 %0, ptr %4, align 4, !tbaa !4
  store i32 %1, ptr %5, align 4, !tbaa !4
  call void @llvm.lifetime.start.p0(i64 4, ptr %6) #10
  %8 = load i32, ptr %4, align 4, !tbaa !4
  %9 = call i32 (i32, i32, ...) @fcntl64(i32 noundef %8, i32 noundef 1, i32 noundef 0)
  store i32 %9, ptr %6, align 4, !tbaa !4
  %10 = load i32, ptr %6, align 4, !tbaa !4
  %11 = icmp eq i32 %10, -1
  br i1 %11, label %12, label %19

12:                                               ; preds = %2
  %13 = load i32, ptr %5, align 4, !tbaa !4
  %14 = icmp ne i32 %13, 0
  br i1 %14, label %15, label %18

15:                                               ; preds = %12
  %16 = load ptr, ptr @PyExc_OSError, align 8, !tbaa !178
  %17 = call ptr @PyErr_SetFromErrno(ptr noundef %16)
  br label %18

18:                                               ; preds = %15, %12
  store i32 -1, ptr %3, align 4
  store i32 1, ptr %7, align 4
  br label %25

19:                                               ; preds = %2
  %20 = load i32, ptr %6, align 4, !tbaa !4
  %21 = and i32 %20, 1
  %22 = icmp ne i32 %21, 0
  %23 = xor i1 %22, true
  %24 = zext i1 %23 to i32
  store i32 %24, ptr %3, align 4
  store i32 1, ptr %7, align 4
  br label %25

25:                                               ; preds = %19, %18
  call void @llvm.lifetime.end.p0(i64 4, ptr %6) #10
  %26 = load i32, ptr %3, align 4
  ret i32 %26
}

; Function Attrs: nounwind uwtable
define hidden i32 @_Py_get_inheritable(i32 noundef %0) #0 {
  %2 = alloca i32, align 4
  store i32 %0, ptr %2, align 4, !tbaa !4
  %3 = load i32, ptr %2, align 4, !tbaa !4
  %4 = call i32 @get_inheritable(i32 noundef %3, i32 noundef 1)
  ret i32 %4
}