; Function Attrs: nounwind uwtable
define hidden range(i32 -1, 2) i32 @_Py_get_inheritable(i32 noundef %0) local_unnamed_addr #0 {
  %2 = tail call i32 (i32, i32, ...) @fcntl64(i32 noundef %0, i32 noundef 1, i32 noundef 0) #17
  %3 = icmp eq i32 %2, -1
  br i1 %3, label %4, label %7

4:                                                ; preds = %1
  %5 = load ptr, ptr @PyExc_OSError, align 8, !tbaa !188
  %6 = tail call ptr @PyErr_SetFromErrno(ptr noundef %5) #17
  br label %get_inheritable.exit

7:                                                ; preds = %1
  %8 = and i32 %2, 1
  %9 = xor i32 %8, 1
  br label %get_inheritable.exit

get_inheritable.exit:                             ; preds = %4, %7
  %.0.i = phi i32 [ %9, %7 ], [ -1, %4 ]
  ret i32 %.0.i
}